target datalayout = "e-m:e-p270:32:32-p271:32:32-p272:64:64-i64:64-i128:128-f80:128-n8:16:32:64-S128"
target triple = "x86_64-pc-linux-gnu"

%struct.sinfo = type { ptr, ptr, [5 x ptr], [5 x i32] }
%struct.magic_set = type { [2 x ptr], %struct.cont, %struct.out, i32, i32, i32, i32, i32, ptr, i64, i32, %struct.anon, %union.VALUETYPE, i16, i16, i16, i16, i16, i16, i64, i64, i64 }
%struct.cont = type { i64, ptr }
%struct.out = type { ptr, i64, ptr }
%struct.anon = type { ptr, i64, i64, i64 }
%union.VALUETYPE = type { [2 x i64], [112 x i8] }

@.str.17 = private unnamed_addr constant [15 x i8] c"application/%s\00", align 1
@.str.60 = private unnamed_addr constant [9 x i8] c"CDFV2 %s\00", align 1

; Function Attrs: nounwind uwtable
define internal i32 @cdf_file_dir_info(ptr noundef %0, ptr noundef %1) #0 {
  %3 = alloca i32, align 4
  %4 = alloca ptr, align 8
  %5 = alloca ptr, align 8
  %6 = alloca i64, align 8
  %7 = alloca i64, align 8
  %8 = alloca ptr, align 8
  store ptr %0, ptr %4, align 8
  store ptr %1, ptr %5, align 8
  store i64 0, ptr %6, align 8
  br label %9

9:                                                ; preds = %81, %2
  %10 = load i64, ptr %6, align 8
  %11 = icmp ult i64 %10, 6
  br i1 %11, label %12, label %84

12:                                               ; preds = %9
  %13 = load i64, ptr %6, align 8
  %14 = getelementptr inbounds [6 x %struct.sinfo], ptr @sectioninfo, i64 0, i64 %13
  store ptr %14, ptr %8, align 8
  store i64 0, ptr %7, align 8
  br label %15

15:                                               ; preds = %38, %12
  %16 = load ptr, ptr %8, align 8
  %17 = getelementptr inbounds %struct.sinfo, ptr %16, i32 0, i32 2
  %18 = load i64, ptr %7, align 8
  %19 = getelementptr inbounds [5 x ptr], ptr %17, i64 0, i64 %18
  %20 = load ptr, ptr %19, align 8
  %21 = icmp ne ptr %20, null
  br i1 %21, label %22, label %41

22:                                               ; preds = %15
  %23 = load ptr, ptr %5, align 8
  %24 = load ptr, ptr %8, align 8
  %25 = getelementptr inbounds %struct.sinfo, ptr %24, i32 0, i32 2
  %26 = load i64, ptr %7, align 8
  %27 = getelementptr inbounds [5 x ptr], ptr %25, i64 0, i64 %26
  %28 = load ptr, ptr %27, align 8
  %29 = load ptr, ptr %8, align 8
  %30 = getelementptr inbounds %struct.sinfo, ptr %29, i32 0, i32 3
  %31 = load i64, ptr %7, align 8
  %32 = getelementptr inbounds [5 x i32], ptr %30, i64 0, i64 %31
  %33 = load i32, ptr %32, align 4
  %34 = call i32 @cdf_find_stream(ptr noundef %23, ptr noundef %28, i32 noundef %33)
  %35 = icmp sgt i32 %34, 0
  br i1 %35, label %36, label %37

36:                                               ; preds = %22
  br label %41

37:                                               ; preds = %22
  br label %38

38:                                               ; preds = %37
  %39 = load i64, ptr %7, align 8
  %40 = add i64 %39, 1
  store i64 %40, ptr %7, align 8
  br label %15

41:                                               ; preds = %36, %15
  %42 = load ptr, ptr %8, align 8
  %43 = getelementptr inbounds %struct.sinfo, ptr %42, i32 0, i32 2
  %44 = load i64, ptr %7, align 8
  %45 = getelementptr inbounds [5 x ptr], ptr %43, i64 0, i64 %44
  %46 = load ptr, ptr %45, align 8
  %47 = icmp eq ptr %46, null
  br i1 %47, label %48, label %49

48:                                               ; preds = %41
  br label %81

49:                                               ; preds = %41
  %50 = load ptr, ptr %4, align 8
  %51 = getelementptr inbounds %struct.magic_set, ptr %50, i32 0, i32 6
  %52 = load i32, ptr %51, align 4
  %53 = and i32 %52, 1040
  %54 = icmp eq i32 %53, 0
  br i1 %54, label %55, label %64

55:                                               ; preds = %49
  %56 = load ptr, ptr %4, align 8
  %57 = load ptr, ptr %8, align 8
  %58 = getelementptr inbounds %struct.sinfo, ptr %57, i32 0, i32 0
  %59 = load ptr, ptr %58, align 8
  %60 = call i32 (ptr, ptr, ...) @file_printf(ptr noundef %56, ptr noundef @.str.60, ptr noundef %59)
  %61 = icmp eq i32 %60, -1
  br i1 %61, label %62, label %63

62:                                               ; preds = %55
  store i32 -1, ptr %3, align 4
  br label %85

63:                                               ; preds = %55
  br label %80

64:                                               ; preds = %49
  %65 = load ptr, ptr %4, align 8
  %66 = getelementptr inbounds %struct.magic_set, ptr %65, i32 0, i32 6
  %67 = load i32, ptr %66, align 4
  %68 = and i32 %67, 16
  %69 = icmp ne i32 %68, 0
  br i1 %69, label %70, label %79

70:                                               ; preds = %64
  %71 = load ptr, ptr %4, align 8
  %72 = load ptr, ptr %8, align 8
  %73 = getelementptr inbounds %struct.sinfo, ptr %72, i32 0, i32 1
  %74 = load ptr, ptr %73, align 8
  %75 = call i32 (ptr, ptr, ...) @file_printf(ptr noundef %71, ptr noundef @.str.17, ptr noundef %74)
  %76 = icmp eq i32 %75, -1
  br i1 %76, label %77, label %78

77:                                               ; preds = %70
  store i32 -1, ptr %3, align 4
  br label %85

78:                                               ; preds = %70
  br label %79

79:                                               ; preds = %78, %64
  br label %80

80:                                               ; preds = %79, %63
  store i32 1, ptr %3, align 4
  br label %85

81:                                               ; preds = %48
  %82 = load i64, ptr %6, align 8
  %83 = add i64 %82, 1
  store i64 %83, ptr %6, align 8
  br label %9

84:                                               ; preds = %9
  store i32 -1, ptr %3, align 4
  br label %85

85:                                               ; preds = %84, %80, %77, %62
  %86 = load i32, ptr %3, align 4
  ret i32 %86
}