; Function Attrs: nounwind uwtable
define internal fastcc noundef i32 @cdf_file_dir_info(ptr noundef %0, ptr noundef %1) unnamed_addr #0 {
  br label %3

3:                                                ; preds = %2, %._crit_edge
  %.02025 = phi i64 [ 0, %2 ], [ %35, %._crit_edge ]
  %4 = getelementptr inbounds [6 x %struct.sinfo], ptr @sectioninfo, i64 0, i64 %.02025
  %5 = getelementptr inbounds i8, ptr %4, i64 16
  %6 = load ptr, ptr %5, align 16
  %.not23 = icmp eq ptr %6, null
  br i1 %.not23, label %._crit_edge, label %.lr.ph

.lr.ph:                                           ; preds = %3
  %7 = getelementptr inbounds i8, ptr %4, i64 56
  br label %12

8:                                                ; preds = %12
  %9 = add i64 %.01924, 1
  %10 = getelementptr inbounds [5 x ptr], ptr %5, i64 0, i64 %9
  %11 = load ptr, ptr %10, align 8
  %.not = icmp eq ptr %11, null
  br i1 %.not, label %._crit_edge, label %12

12:                                               ; preds = %.lr.ph, %8
  %13 = phi ptr [ %6, %.lr.ph ], [ %11, %8 ]
  %.01924 = phi i64 [ 0, %.lr.ph ], [ %9, %8 ]
  %14 = getelementptr inbounds [5 x i32], ptr %7, i64 0, i64 %.01924
  %15 = load i32, ptr %14, align 4
  %16 = tail call i32 @cdf_find_stream(ptr noundef %1, ptr noundef nonnull %13, i32 noundef %15) #8
  %17 = icmp sgt i32 %16, 0
  br i1 %17, label %18, label %8

18:                                               ; preds = %12
  %19 = getelementptr inbounds i8, ptr %0, i64 68
  %20 = load i32, ptr %19, align 4
  %21 = and i32 %20, 1040
  %22 = icmp eq i32 %21, 0
  br i1 %22, label %23, label %27

23:                                               ; preds = %18
  %24 = load ptr, ptr %4, align 8
  %25 = tail call i32 (ptr, ptr, ...) @file_printf(ptr noundef nonnull %0, ptr noundef nonnull @.str.60, ptr noundef %24) #8
  %26 = icmp eq i32 %25, -1
  br i1 %26, label %.loopexit, label %34

27:                                               ; preds = %18
  %28 = and i32 %20, 16
  %.not22 = icmp eq i32 %28, 0
  br i1 %.not22, label %34, label %29

29:                                               ; preds = %27
  %30 = getelementptr inbounds i8, ptr %4, i64 8
  %31 = load ptr, ptr %30, align 8
  %32 = tail call i32 (ptr, ptr, ...) @file_printf(ptr noundef nonnull %0, ptr noundef nonnull @.str.17, ptr noundef %31) #8
  %33 = icmp eq i32 %32, -1
  br i1 %33, label %.loopexit, label %34

34:                                               ; preds = %27, %29, %23
  br label %.loopexit

._crit_edge:                                      ; preds = %8, %3
  %35 = add nuw nsw i64 %.02025, 1
  %exitcond.not = icmp eq i64 %35, 6
  br i1 %exitcond.not, label %.loopexit, label %3

.loopexit:                                        ; preds = %._crit_edge, %29, %23, %34
  %.0 = phi i32 [ 1, %34 ], [ -1, %23 ], [ -1, %29 ], [ -1, %._crit_edge ]
  ret i32 %.0
}